target datalayout = "e-m:e-p270:32:32-p271:32:32-p272:64:64-i64:64-i128:128-f80:128-n8:16:32:64-S128"
target triple = "x86_64-pc-linux-gnu"

%struct.tm = type { i32, i32, i32, i32, i32, i32, i32, i32, i32, i64, ptr }

@mon_names = internal constant [12 x [4 x i8]] [[4 x i8] c"Jan\00", [4 x i8] c"Feb\00", [4 x i8] c"Mar\00", [4 x i8] c"Apr\00", [4 x i8] c"May\00", [4 x i8] c"Jun\00", [4 x i8] c"Jul\00", [4 x i8] c"Aug\00", [4 x i8] c"Sep\00", [4 x i8] c"Oct\00", [4 x i8] c"Nov\00", [4 x i8] c"Dec\00"], align 16
@.str.2409 = private unnamed_addr constant [31 x i8] c"%s %2d, %d %02d:%02d:%02d.%03d\00", align 1

; Function Attrs: null_pointer_is_valid sspstrong uwtable
define internal void @s7comm_get_timestring_from_s7time(ptr noundef %0, i32 noundef %1, ptr noundef %2, i32 noundef %3) #0 {
  %5 = alloca ptr, align 8
  %6 = alloca i32, align 4
  %7 = alloca ptr, align 8
  %8 = alloca i32, align 4
  %9 = alloca i16, align 2
  %10 = alloca i32, align 4
  %11 = alloca ptr, align 8
  %12 = alloca i64, align 8
  store ptr %0, ptr %5, align 8
  store i32 %1, ptr %6, align 4
  store ptr %2, ptr %7, align 8
  store i32 %3, ptr %8, align 4
  call void @llvm.lifetime.start.p0(i64 2, ptr %9) #8
  call void @llvm.lifetime.start.p0(i64 4, ptr %10) #8
  call void @llvm.lifetime.start.p0(i64 8, ptr %11) #8
  call void @llvm.lifetime.start.p0(i64 8, ptr %12) #8
  %13 = load ptr, ptr %5, align 8
  %14 = load i32, ptr %6, align 4
  %15 = call i32 @tvb_get_ntohl(ptr noundef %13, i32 noundef %14)
  store i32 %15, ptr %10, align 4
  %16 = load ptr, ptr %5, align 8
  %17 = load i32, ptr %6, align 4
  %18 = add i32 %17, 4
  %19 = call zeroext i16 @tvb_get_ntohs(ptr noundef %16, i32 noundef %18)
  store i16 %19, ptr %9, align 2
  store i64 441763200, ptr %12, align 8
  %20 = load i16, ptr %9, align 2
  %21 = zext i16 %20 to i32
  %22 = mul i32 %21, 86400
  %23 = zext i32 %22 to i64
  %24 = load i64, ptr %12, align 8
  %25 = add i64 %24, %23
  store i64 %25, ptr %12, align 8
  %26 = load i32, ptr %10, align 4
  %27 = udiv i32 %26, 1000
  %28 = zext i32 %27 to i64
  %29 = load i64, ptr %12, align 8
  %30 = add i64 %29, %28
  store i64 %30, ptr %12, align 8
  %31 = call ptr @gmtime(ptr noundef %12) #8
  store ptr %31, ptr %11, align 8
  %32 = load ptr, ptr %7, align 8
  %33 = getelementptr i8, ptr %32, i64 0
  store i8 0, ptr %33, align 1
  %34 = load ptr, ptr %11, align 8
  %35 = icmp ne ptr %34, null
  br i1 %35, label %36, label %67

36:                                               ; preds = %4
  %37 = load ptr, ptr %7, align 8
  %38 = load i32, ptr %8, align 4
  %39 = sext i32 %38 to i64
  %40 = load ptr, ptr %7, align 8
  %41 = call i64 @llvm.objectsize.i64.p0(ptr %40, i1 false, i1 true, i1 true)
  %42 = load ptr, ptr %11, align 8
  %43 = getelementptr inbounds nuw %struct.tm, ptr %42, i32 0, i32 4
  %44 = load i32, ptr %43, align 8
  %45 = sext i32 %44 to i64
  %46 = getelementptr [12 x [4 x i8]], ptr @mon_names, i64 0, i64 %45
  %47 = getelementptr inbounds [4 x i8], ptr %46, i64 0, i64 0
  %48 = load ptr, ptr %11, align 8
  %49 = getelementptr inbounds nuw %struct.tm, ptr %48, i32 0, i32 3
  %50 = load i32, ptr %49, align 4
  %51 = load ptr, ptr %11, align 8
  %52 = getelementptr inbounds nuw %struct.tm, ptr %51, i32 0, i32 5
  %53 = load i32, ptr %52, align 4
  %54 = add i32 %53, 1900
  %55 = load ptr, ptr %11, align 8
  %56 = getelementptr inbounds nuw %struct.tm, ptr %55, i32 0, i32 2
  %57 = load i32, ptr %56, align 8
  %58 = load ptr, ptr %11, align 8
  %59 = getelementptr inbounds nuw %struct.tm, ptr %58, i32 0, i32 1
  %60 = load i32, ptr %59, align 4
  %61 = load ptr, ptr %11, align 8
  %62 = getelementptr inbounds nuw %struct.tm, ptr %61, i32 0, i32 0
  %63 = load i32, ptr %62, align 8
  %64 = load i32, ptr %10, align 4
  %65 = urem i32 %64, 1000
  %66 = call i32 (ptr, i64, i32, i64, ptr, ...) @__snprintf_chk(ptr noundef %37, i64 noundef %39, i32 noundef 2, i64 noundef %41, ptr noundef @.str.2409, ptr noundef %47, i32 noundef %50, i32 noundef %54, i32 noundef %57, i32 noundef %60, i32 noundef %63, i32 noundef %65)
  br label %67

67:                                               ; preds = %36, %4
  call void @llvm.lifetime.end.p0(i64 8, ptr %12) #8
  call void @llvm.lifetime.end.p0(i64 8, ptr %11) #8
  call void @llvm.lifetime.end.p0(i64 4, ptr %10) #8
  call void @llvm.lifetime.end.p0(i64 2, ptr %9) #8
  ret void
}