; Function Attrs: null_pointer_is_valid sspstrong uwtable
define internal fastcc void @s7comm_get_timestring_from_s7time(ptr noundef %0, i32 noundef %1, ptr noundef initializes((0, 1)) %2) unnamed_addr #0 {
  %4 = alloca i64, align 8
  call void @llvm.lifetime.start.p0(i64 8, ptr nonnull %4) #8
  %5 = tail call i32 @tvb_get_ntohl(ptr noundef %0, i32 noundef %1)
  %6 = add i32 %1, 4
  %7 = tail call zeroext i16 @tvb_get_ntohs(ptr noundef %0, i32 noundef %6)
  %8 = zext i16 %7 to i64
  %9 = mul nuw nsw i64 %8, 86400
  %10 = and i64 %9, 4294967168
  %11 = udiv i32 %5, 1000
  %12 = urem i32 %5, 1000
  %narrow = add nuw nsw i32 %11, 441763200
  %13 = zext nneg i32 %narrow to i64
  %14 = add nuw nsw i64 %10, %13
  store i64 %14, ptr %4, align 8
  %15 = call ptr @gmtime(ptr noundef nonnull %4) #8
  store i8 0, ptr %2, align 1
  %.not = icmp eq ptr %15, null
  br i1 %.not, label %32, label %16

16:                                               ; preds = %3
  %17 = getelementptr inbounds nuw i8, ptr %15, i64 16
  %18 = load i32, ptr %17, align 8
  %19 = sext i32 %18 to i64
  %20 = getelementptr [12 x [4 x i8]], ptr @mon_names, i64 0, i64 %19
  %21 = getelementptr inbounds nuw i8, ptr %15, i64 12
  %22 = load i32, ptr %21, align 4
  %23 = getelementptr inbounds nuw i8, ptr %15, i64 20
  %24 = load i32, ptr %23, align 4
  %25 = add i32 %24, 1900
  %26 = getelementptr inbounds nuw i8, ptr %15, i64 8
  %27 = load i32, ptr %26, align 8
  %28 = getelementptr inbounds nuw i8, ptr %15, i64 4
  %29 = load i32, ptr %28, align 4
  %30 = load i32, ptr %15, align 8
  %31 = call i32 (ptr, i64, i32, i64, ptr, ...) @__snprintf_chk(ptr noundef %2, i64 noundef 30, i32 noundef 2, i64 noundef -1, ptr noundef nonnull @.str.2409, ptr noundef %20, i32 noundef %22, i32 noundef %25, i32 noundef %27, i32 noundef %29, i32 noundef %30, i32 noundef %12)
  br label %32

32:                                               ; preds = %16, %3
  call void @llvm.lifetime.end.p0(i64 8, ptr nonnull %4) #8
  ret void
}